; Function Attrs: mustprogress uwtable
define noundef zeroext i1 @_ZN7jsonnet7Jsonnet17evaluateFileMultiERKNSt7__cxx1112basic_stringIcSt11char_traitsIcESaIcEEEPSt3mapIS6_S6_St4lessIS6_ESaISt4pairIS7_S6_EEE(ptr noundef nonnull align 8 dereferenceable(40) %0, ptr noundef nonnull readonly align 8 captures(none) dereferenceable(32) %1, ptr noundef %2) local_unnamed_addr #5 align 2 {
  %4 = alloca %"struct.std::pair.3", align 8
  %5 = alloca i32, align 4
  %6 = icmp eq ptr %2, null
  br i1 %6, label %33, label %7

7:                                                ; preds = %3
  call void @llvm.lifetime.start.p0(i64 4, ptr nonnull %5) #18
  store i32 0, ptr %5, align 4, !tbaa !21
  %8 = load ptr, ptr %0, align 8, !tbaa !6
  %9 = load ptr, ptr %1, align 8, !tbaa !19
  %10 = call ptr @jsonnet_evaluate_file_multi(ptr noundef %8, ptr noundef %9, ptr noundef nonnull %5)
  %11 = load i32, ptr %5, align 4, !tbaa !21
  %.not = icmp eq i32 %11, 0
  br i1 %.not, label %18, label %12

12:                                               ; preds = %7
  %13 = getelementptr inbounds nuw i8, ptr %0, i64 8
  %14 = getelementptr inbounds nuw i8, ptr %0, i64 16
  %15 = load i64, ptr %14, align 8, !tbaa !17
  %16 = call noundef i64 @strlen(ptr noundef nonnull dereferenceable(1) %10) #18
  %17 = call noundef nonnull align 8 dereferenceable(32) ptr @_ZNSt7__cxx1112basic_stringIcSt11char_traitsIcESaIcEE10_M_replaceEmmPKcm(ptr noundef nonnull align 8 dereferenceable(32) %13, i64 noundef 0, i64 noundef %15, ptr noundef nonnull %10, i64 noundef %16)
  br label %_ZN7jsonnet12_GLOBAL__N_116parseMultiOutputEPKcPSt3mapINSt7__cxx1112basic_stringIcSt11char_traitsIcESaIcEEES9_St4lessIS9_ESaISt4pairIKS9_S9_EEE.exit

18:                                               ; preds = %7
  %19 = load i8, ptr %10, align 1, !tbaa !18
  %.not18.i = icmp eq i8 %19, 0
  br i1 %.not18.i, label %_ZN7jsonnet12_GLOBAL__N_116parseMultiOutputEPKcPSt3mapINSt7__cxx1112basic_stringIcSt11char_traitsIcESaIcEEES9_St4lessIS9_ESaISt4pairIKS9_S9_EEE.exit, label %.preheader.lr.ph.i

.preheader.lr.ph.i:                               ; preds = %18
  %20 = getelementptr inbounds nuw i8, ptr %4, i64 8
  br label %.preheader.i

.preheader.i:                                     ; preds = %28, %.preheader.lr.ph.i
  %.019.i = phi ptr [ %10, %.preheader.lr.ph.i ], [ %27, %28 ]
  br label %21

21:                                               ; preds = %21, %.preheader.i
  %.01317.i = phi ptr [ %.019.i, %.preheader.i ], [ %22, %21 ]
  %22 = getelementptr inbounds nuw i8, ptr %.01317.i, i64 1
  %.pr.i = load i8, ptr %22, align 1, !tbaa !18
  %.not14.i = icmp eq i8 %.pr.i, 0
  br i1 %.not14.i, label %23, label %21, !llvm.loop !23

23:                                               ; preds = %21
  %24 = getelementptr inbounds nuw i8, ptr %.01317.i, i64 2
  br label %25

25:                                               ; preds = %25, %23
  %.1.i = phi ptr [ %24, %23 ], [ %27, %25 ]
  %26 = load i8, ptr %.1.i, align 1, !tbaa !18
  %.not15.i = icmp eq i8 %26, 0
  %27 = getelementptr inbounds nuw i8, ptr %.1.i, i64 1
  br i1 %.not15.i, label %28, label %25, !llvm.loop !25

28:                                               ; preds = %25
  call void @llvm.lifetime.start.p0(i64 16, ptr nonnull %4) #18
  store ptr %.019.i, ptr %4, align 8
  store ptr %24, ptr %20, align 8
  %29 = call { ptr, i8 } @_ZNSt8_Rb_treeINSt7__cxx1112basic_stringIcSt11char_traitsIcESaIcEEESt4pairIKS5_S5_ESt10_Select1stIS8_ESt4lessIS5_ESaIS8_EE17_M_emplace_uniqueIJS6_IPKcSH_EEEES6_ISt17_Rb_tree_iteratorIS8_EbEDpOT_(ptr noundef nonnull align 8 dereferenceable(48) %2, ptr noundef nonnull align 8 dereferenceable(16) %4)
  call void @llvm.lifetime.end.p0(i64 16, ptr nonnull %4) #18
  %30 = load i8, ptr %27, align 1, !tbaa !18
  %.not.i = icmp eq i8 %30, 0
  br i1 %.not.i, label %_ZN7jsonnet12_GLOBAL__N_116parseMultiOutputEPKcPSt3mapINSt7__cxx1112basic_stringIcSt11char_traitsIcESaIcEEES9_St4lessIS9_ESaISt4pairIKS9_S9_EEE.exit, label %.preheader.i, !llvm.loop !26

_ZN7jsonnet12_GLOBAL__N_116parseMultiOutputEPKcPSt3mapINSt7__cxx1112basic_stringIcSt11char_traitsIcESaIcEEES9_St4lessIS9_ESaISt4pairIKS9_S9_EEE.exit: ; preds = %28, %18, %12
  %31 = load ptr, ptr %0, align 8, !tbaa !6
  %32 = call ptr @jsonnet_realloc(ptr noundef %31, ptr noundef nonnull %10, i64 noundef 0)
  call void @llvm.lifetime.end.p0(i64 4, ptr nonnull %5) #18
  br label %33

33:                                               ; preds = %3, %_ZN7jsonnet12_GLOBAL__N_116parseMultiOutputEPKcPSt3mapINSt7__cxx1112basic_stringIcSt11char_traitsIcESaIcEEES9_St4lessIS9_ESaISt4pairIKS9_S9_EEE.exit
  %.0 = phi i1 [ %.not, %_ZN7jsonnet12_GLOBAL__N_116parseMultiOutputEPKcPSt3mapINSt7__cxx1112basic_stringIcSt11char_traitsIcESaIcEEES9_St4lessIS9_ESaISt4pairIKS9_S9_EEE.exit ], [ false, %3 ]
  ret i1 %.0
}